; Function Attrs: noinline nounwind uwtable
define internal fastcc signext range(i8 0, 2) i8 @moProcessAcceptsNoSquash256(ptr noundef readonly captures(none) %0, <4 x i64> %.0.val, <4 x i64> %.0.val1, ptr noundef readonly captures(none) %1, i64 noundef %2, ptr noundef readonly captures(none) %3, ptr noundef %4) unnamed_addr #4 {
  %6 = alloca [4 x i64], align 16
  %7 = alloca [4 x i64], align 16
  %8 = and <4 x i64> %.0.val1, %.0.val
  call void @llvm.lifetime.start.p0(i64 32, ptr nonnull %6) #10
  store <4 x i64> %8, ptr %6, align 16
  call void @llvm.lifetime.start.p0(i64 32, ptr nonnull %7) #10
  store <4 x i64> %.0.val1, ptr %7, align 16
  br label %9

9:                                                ; preds = %5, %.critedge.i.thread
  %indvars.iv = phi i64 [ 0, %5 ], [ %indvars.iv.next, %.critedge.i.thread ]
  %.033.i23 = phi i32 [ 0, %5 ], [ %40, %.critedge.i.thread ]
  %10 = getelementptr inbounds nuw [4 x i64], ptr %6, i64 0, i64 %indvars.iv
  %11 = load i64, ptr %10, align 8
  %.not.i19 = icmp eq i64 %11, 0
  %.phi.trans.insert = getelementptr inbounds nuw [4 x i64], ptr %7, i64 0, i64 %indvars.iv
  br i1 %.not.i19, label %..critedge.i.thread_crit_edge, label %.lr.ph21

..critedge.i.thread_crit_edge:                    ; preds = %9
  %.pre = load i64, ptr %.phi.trans.insert, align 8
  br label %.critedge.i.thread

.lr.ph21:                                         ; preds = %9, %limexRunAccept.exit.thread6
  %.020 = phi i64 [ %14, %limexRunAccept.exit.thread6 ], [ %11, %9 ]
  %12 = tail call { i64, i64 } asm "bsfq $1, $0\0Abtrq $0, $1\0A", "=r,=r,1,~{dirflag},~{fpsr},~{flags}"(i64 %.020) #11, !srcloc !7
  %13 = extractvalue { i64, i64 } %12, 0
  %14 = extractvalue { i64, i64 } %12, 1
  %15 = load i64, ptr %.phi.trans.insert, align 8
  %16 = and i64 %13, 4294967295
  %notmask.i = shl nsw i64 -1, %16
  %17 = xor i64 %notmask.i, -1
  %18 = and i64 %15, %17
  %19 = tail call range(i64 0, 64) i64 @llvm.ctpop.i64(i64 %18)
  %20 = trunc nuw nsw i64 %19 to i32
  %21 = add i32 %.033.i23, %20
  %22 = zext i32 %21 to i64
  %23 = getelementptr inbounds nuw %struct.NFAAccept, ptr %1, i64 %22
  %24 = load i8, ptr %23, align 4
  %.not.i7 = icmp eq i8 %24, 0
  %25 = getelementptr inbounds nuw i8, ptr %23, i64 4
  %26 = load i32, ptr %25, align 4
  br i1 %.not.i7, label %27, label %limexRunAccept.exit

27:                                               ; preds = %.lr.ph21
  %28 = zext i32 %26 to i64
  %29 = getelementptr inbounds nuw i8, ptr %0, i64 %28
  %30 = load i32, ptr %29, align 4
  %.not.i817 = icmp eq i32 %30, -1
  br i1 %.not.i817, label %limexRunAccept.exit.thread6, label %.lr.ph

31:                                               ; preds = %.lr.ph
  %32 = getelementptr inbounds nuw i8, ptr %.09.i18, i64 4
  %33 = load i32, ptr %32, align 4
  %.not.i8 = icmp eq i32 %33, -1
  br i1 %.not.i8, label %limexRunAccept.exit.thread6, label %.lr.ph

.lr.ph:                                           ; preds = %27, %31
  %34 = phi i32 [ %33, %31 ], [ %30, %27 ]
  %.09.i18 = phi ptr [ %32, %31 ], [ %29, %27 ]
  %35 = tail call i32 %3(i64 noundef 0, i64 noundef %2, i32 noundef %34, ptr noundef %4) #10
  %.not = icmp eq i32 %35, 0
  br i1 %.not, label %moProcessAcceptsImpl256.exit, label %31

limexRunAccept.exit:                              ; preds = %.lr.ph21
  %36 = tail call i32 %3(i64 noundef 0, i64 noundef %2, i32 noundef %26, ptr noundef %4) #10
  %.not44.i = icmp eq i32 %36, 0
  br i1 %.not44.i, label %moProcessAcceptsImpl256.exit, label %limexRunAccept.exit.thread6, !prof !8

limexRunAccept.exit.thread6:                      ; preds = %31, %27, %limexRunAccept.exit
  %.not.i = icmp eq i64 %14, 0
  br i1 %.not.i, label %.critedge.i.thread, label %.lr.ph21

.critedge.i.thread:                               ; preds = %limexRunAccept.exit.thread6, %..critedge.i.thread_crit_edge
  %37 = phi i64 [ %.pre, %..critedge.i.thread_crit_edge ], [ %15, %limexRunAccept.exit.thread6 ]
  %38 = tail call range(i64 0, 65) i64 @llvm.ctpop.i64(i64 %37)
  %39 = trunc nuw nsw i64 %38 to i32
  %40 = add i32 %.033.i23, %39
  %indvars.iv.next = add nuw nsw i64 %indvars.iv, 1
  %exitcond.not = icmp eq i64 %indvars.iv.next, 4
  br i1 %exitcond.not, label %moProcessAcceptsImpl256.exit, label %9

moProcessAcceptsImpl256.exit:                     ; preds = %.critedge.i.thread, %limexRunAccept.exit, %.lr.ph
  %spec.select.i = phi i8 [ 1, %.lr.ph ], [ 1, %limexRunAccept.exit ], [ 0, %.critedge.i.thread ]
  call void @llvm.lifetime.end.p0(i64 32, ptr nonnull %7) #10
  call void @llvm.lifetime.end.p0(i64 32, ptr nonnull %6) #10
  ret i8 %spec.select.i
}